; Function Attrs: mustprogress uwtable
define hidden void @_ZN4cvc58internal15BoundVarManager13getCacheValueENS0_12NodeTemplateILb0EEES3_(ptr dead_on_unwind noalias writable sret(%"class.cvc5::internal::NodeTemplate") align 8 %0, ptr noundef readonly captures(none) %1, ptr noundef readonly captures(none) %2) local_unnamed_addr #5 align 2 personality ptr @__gxx_personality_v0 {
.noexc:
  %3 = alloca %"class.cvc5::internal::NodeBuilder", align 8
  %4 = alloca %"class.cvc5::internal::NodeTemplate.5", align 8
  %5 = alloca %"class.cvc5::internal::NodeTemplate.5", align 8
  %6 = load ptr, ptr %1, align 8, !tbaa !96
  %7 = load ptr, ptr %2, align 8, !tbaa !96
  call void @llvm.lifetime.start.p0(i64 8, ptr nonnull %4)
  call void @llvm.lifetime.start.p0(i64 8, ptr nonnull %5)
  call void @llvm.lifetime.start.p0(i64 128, ptr nonnull %3) #20, !noalias !98
  %8 = getelementptr inbounds nuw i8, ptr %6, i64 16
  %9 = load ptr, ptr %8, align 8, !tbaa !23, !noalias !98
  call void @_ZN4cvc58internal11NodeBuilderC1EPNS0_11NodeManagerENS0_4kind6Kind_tE(ptr noundef nonnull align 8 dereferenceable(124) %3, ptr noundef %9, i32 noundef 11)
  store ptr %6, ptr %4, align 8, !tbaa !96, !noalias !98
  %10 = invoke noundef nonnull align 8 dereferenceable(124) ptr @_ZN4cvc58internal11NodeBuilderlsENS0_12NodeTemplateILb0EEE(ptr noundef nonnull align 8 dereferenceable(124) %3, ptr noundef nonnull %4)
          to label %11 unwind label %16, !noalias !98

11:                                               ; preds = %.noexc
  store ptr %7, ptr %5, align 8, !tbaa !96, !noalias !98
  %12 = invoke noundef nonnull align 8 dereferenceable(124) ptr @_ZN4cvc58internal11NodeBuilderlsENS0_12NodeTemplateILb0EEE(ptr noundef nonnull align 8 dereferenceable(124) %10, ptr noundef nonnull %5)
          to label %13 unwind label %18, !noalias !98

13:                                               ; preds = %11
  invoke void @_ZN4cvc58internal11NodeBuilder13constructNodeEv(ptr dead_on_unwind writable sret(%"class.cvc5::internal::NodeTemplate") align 8 %0, ptr noundef nonnull align 8 dereferenceable(124) %3)
          to label %20 unwind label %14

14:                                               ; preds = %13
  %15 = landingpad { ptr, i32 }
          cleanup
  br label %.body

16:                                               ; preds = %.noexc
  %17 = landingpad { ptr, i32 }
          cleanup
  br label %.body

18:                                               ; preds = %11
  %19 = landingpad { ptr, i32 }
          cleanup
  br label %.body

.body:                                            ; preds = %18, %16, %14
  %.pn5.i = phi { ptr, i32 } [ %15, %14 ], [ %19, %18 ], [ %17, %16 ]
  call void @_ZN4cvc58internal11NodeBuilderD1Ev(ptr noundef nonnull align 8 dereferenceable(124) %3) #20
  call void @llvm.lifetime.end.p0(i64 128, ptr nonnull %3) #20, !noalias !98
  resume { ptr, i32 } %.pn5.i

20:                                               ; preds = %13
  call void @_ZN4cvc58internal11NodeBuilderD1Ev(ptr noundef nonnull align 8 dereferenceable(124) %3) #20
  call void @llvm.lifetime.end.p0(i64 128, ptr nonnull %3) #20, !noalias !98
  call void @llvm.lifetime.end.p0(i64 8, ptr nonnull %4)
  call void @llvm.lifetime.end.p0(i64 8, ptr nonnull %5)
  ret void
}